target datalayout = "e-m:e-p270:32:32-p271:32:32-p272:64:64-i64:64-i128:128-f80:128-n8:16:32:64-S128"
target triple = "x86_64-pc-linux-gnu"

%"class.sat::cut_set" = type { i32, ptr, i32, i32, ptr }
%"class.sat::cut" = type { i32, i32, [5 x i32], i64, i64 }
%"class.std::function" = type { %"class.std::_Function_base", ptr }
%"class.std::_Function_base" = type { %"union.std::_Any_data", ptr }
%"union.std::_Any_data" = type { %"union.std::_Nocopy_types" }
%"union.std::_Nocopy_types" = type { { i64, i64 } }

; Function Attrs: noinline noreturn nounwind uwtable
define linkonce_odr hidden void @__clang_call_terminate(ptr noundef %0) #11 comdat {
  %2 = call ptr @__cxa_begin_catch(ptr %0) #3
  call void @_ZSt9terminatev() #17
  unreachable
}

; Function Attrs: mustprogress nounwind uwtable
define linkonce_odr hidden noundef zeroext i1 @_ZNKSt14_Function_base8_M_emptyEv(ptr noundef nonnull align 8 dereferenceable(24) %0) #6 comdat align 2 {
  %2 = alloca ptr, align 8
  store ptr %0, ptr %2, align 8, !tbaa !122
  %3 = load ptr, ptr %2, align 8
  %4 = getelementptr inbounds nuw %"class.std::_Function_base", ptr %3, i32 0, i32 1
  %5 = load ptr, ptr %4, align 8, !tbaa !124
  %6 = icmp ne ptr %5, null
  %7 = xor i1 %6, true
  ret i1 %7
}

; Function Attrs: mustprogress uwtable
define linkonce_odr hidden void @_ZNKSt8functionIFvjRKN3sat3cutEEEclEjS3_(ptr noundef nonnull align 8 dereferenceable(32) %0, i32 noundef %1, ptr noundef nonnull align 8 dereferenceable(48) %2) #4 comdat align 2 {
  %4 = alloca ptr, align 8
  %5 = alloca i32, align 4
  %6 = alloca ptr, align 8
  store ptr %0, ptr %4, align 8, !tbaa !8
  store i32 %1, ptr %5, align 4, !tbaa !12
  store ptr %2, ptr %6, align 8, !tbaa !10
  %7 = load ptr, ptr %4, align 8
  %8 = call noundef zeroext i1 @_ZNKSt14_Function_base8_M_emptyEv(ptr noundef nonnull align 8 dereferenceable(24) %7)
  br i1 %8, label %9, label %10

9:                                                ; preds = %3
  call void @_ZSt25__throw_bad_function_callv() #18
  unreachable

10:                                               ; preds = %3
  %11 = getelementptr inbounds nuw %"class.std::function", ptr %7, i32 0, i32 1
  %12 = load ptr, ptr %11, align 8, !tbaa !61
  %13 = getelementptr inbounds nuw %"class.std::_Function_base", ptr %7, i32 0, i32 0
  %14 = load ptr, ptr %6, align 8, !tbaa !10
  call void %12(ptr noundef nonnull align 8 dereferenceable(16) %13, ptr noundef nonnull align 4 dereferenceable(4) %5, ptr noundef nonnull align 8 dereferenceable(48) %14)
  ret void
}

; Function Attrs: mustprogress nounwind uwtable
define linkonce_odr hidden noundef zeroext i1 @_ZNKSt8functionIFvjRKN3sat3cutEEEcvbEv(ptr noundef nonnull align 8 dereferenceable(32) %0) #6 comdat align 2 personality ptr @__gxx_personality_v0 {
  %2 = alloca ptr, align 8
  store ptr %0, ptr %2, align 8, !tbaa !8
  %3 = load ptr, ptr %2, align 8
  %4 = invoke noundef zeroext i1 @_ZNKSt14_Function_base8_M_emptyEv(ptr noundef nonnull align 8 dereferenceable(24) %3)
          to label %5 unwind label %7

5:                                                ; preds = %1
  %6 = xor i1 %4, true
  ret i1 %6

7:                                                ; preds = %1
  %8 = landingpad { ptr, i32 }
          catch ptr null
  %9 = extractvalue { ptr, i32 } %8, 0
  call void @__clang_call_terminate(ptr %9) #17
  unreachable
}

; Function Attrs: mustprogress uwtable
define hidden void @_ZN3sat7cut_set5evictERSt8functionIFvjRKNS_3cutEEEj(ptr noundef nonnull align 8 dereferenceable(32) %0, ptr noundef nonnull align 8 dereferenceable(32) %1, i32 noundef %2) #4 align 2 {
  %4 = alloca ptr, align 8
  %5 = alloca ptr, align 8
  %6 = alloca i32, align 4
  store ptr %0, ptr %4, align 8, !tbaa !3
  store ptr %1, ptr %5, align 8, !tbaa !8
  store i32 %2, ptr %6, align 4, !tbaa !12
  %7 = load ptr, ptr %4, align 8
  %8 = getelementptr inbounds nuw %"class.sat::cut_set", ptr %7, i32 0, i32 0
  %9 = load i32, ptr %8, align 8, !tbaa !31
  %10 = icmp ne i32 %9, -1
  br i1 %10, label %11, label %23

11:                                               ; preds = %3
  %12 = load ptr, ptr %5, align 8, !tbaa !8
  %13 = call noundef zeroext i1 @_ZNKSt8functionIFvjRKN3sat3cutEEEcvbEv(ptr noundef nonnull align 8 dereferenceable(32) %12) #3
  br i1 %13, label %14, label %23

14:                                               ; preds = %11
  %15 = load ptr, ptr %5, align 8, !tbaa !8
  %16 = getelementptr inbounds nuw %"class.sat::cut_set", ptr %7, i32 0, i32 0
  %17 = load i32, ptr %16, align 8, !tbaa !31
  %18 = getelementptr inbounds nuw %"class.sat::cut_set", ptr %7, i32 0, i32 4
  %19 = load ptr, ptr %18, align 8, !tbaa !17
  %20 = load i32, ptr %6, align 4, !tbaa !12
  %21 = zext i32 %20 to i64
  %22 = getelementptr inbounds nuw %"class.sat::cut", ptr %19, i64 %21
  call void @_ZNKSt8functionIFvjRKN3sat3cutEEEclEjS3_(ptr noundef nonnull align 8 dereferenceable(32) %15, i32 noundef %17, ptr noundef nonnull align 8 dereferenceable(48) %22)
  br label %23

23:                                               ; preds = %14, %11, %3
  %24 = getelementptr inbounds nuw %"class.sat::cut_set", ptr %7, i32 0, i32 4
  %25 = load ptr, ptr %24, align 8, !tbaa !17
  %26 = getelementptr inbounds nuw %"class.sat::cut_set", ptr %7, i32 0, i32 2
  %27 = load i32, ptr %26, align 8, !tbaa !14
  %28 = add i32 %27, -1
  store i32 %28, ptr %26, align 8, !tbaa !14
  %29 = zext i32 %28 to i64
  %30 = getelementptr inbounds nuw %"class.sat::cut", ptr %25, i64 %29
  %31 = getelementptr inbounds nuw %"class.sat::cut_set", ptr %7, i32 0, i32 4
  %32 = load ptr, ptr %31, align 8, !tbaa !17
  %33 = load i32, ptr %6, align 4, !tbaa !12
  %34 = zext i32 %33 to i64
  %35 = getelementptr inbounds nuw %"class.sat::cut", ptr %32, i64 %34
  call void @llvm.memcpy.p0.p0.i64(ptr align 8 %35, ptr align 8 %30, i64 48, i1 false), !tbaa.struct !26
  ret void
}