; Function Attrs: mustprogress uwtable
define hidden void @_ZN3sat7cut_set5evictERSt8functionIFvjRKNS_3cutEEEj(ptr noundef nonnull align 8 captures(none) dereferenceable(32) %0, ptr noundef nonnull align 8 dereferenceable(32) %1, i32 noundef %2) local_unnamed_addr #3 align 2 personality ptr @__gxx_personality_v0 {
  %4 = alloca i32, align 4
  %5 = load i32, ptr %0, align 8, !tbaa !23
  %.not = icmp ne i32 %5, -1
  %6 = getelementptr inbounds nuw i8, ptr %1, i64 16
  %7 = load ptr, ptr %6, align 8
  %.not.i.i = icmp ne ptr %7, null
  %or.cond = select i1 %.not, i1 %.not.i.i, i1 false
  br i1 %or.cond, label %_ZNKSt8functionIFvjRKN3sat3cutEEEclEjS3_.exit, label %._crit_edge

._crit_edge:                                      ; preds = %3
  %.pre = zext i32 %2 to i64
  br label %14

_ZNKSt8functionIFvjRKN3sat3cutEEEclEjS3_.exit:    ; preds = %3
  %8 = getelementptr inbounds nuw i8, ptr %0, i64 24
  %9 = load ptr, ptr %8, align 8, !tbaa !11
  %10 = zext i32 %2 to i64
  %11 = getelementptr inbounds nuw %"class.sat::cut", ptr %9, i64 %10
  call void @llvm.lifetime.start.p0(i64 4, ptr nonnull %4)
  store i32 %5, ptr %4, align 4, !tbaa !16
  %12 = getelementptr inbounds nuw i8, ptr %1, i64 24
  %13 = load ptr, ptr %12, align 8, !tbaa !26
  call void %13(ptr noundef nonnull align 8 dereferenceable(32) %1, ptr noundef nonnull align 4 dereferenceable(4) %4, ptr noundef nonnull align 8 dereferenceable(48) %11)
  call void @llvm.lifetime.end.p0(i64 4, ptr nonnull %4)
  br label %14

14:                                               ; preds = %._crit_edge, %_ZNKSt8functionIFvjRKN3sat3cutEEEclEjS3_.exit
  %.pre-phi = phi i64 [ %.pre, %._crit_edge ], [ %10, %_ZNKSt8functionIFvjRKN3sat3cutEEEclEjS3_.exit ]
  %15 = getelementptr inbounds nuw i8, ptr %0, i64 24
  %16 = load ptr, ptr %15, align 8, !tbaa !11
  %17 = getelementptr inbounds nuw i8, ptr %0, i64 16
  %18 = load i32, ptr %17, align 8, !tbaa !3
  %19 = add i32 %18, -1
  store i32 %19, ptr %17, align 8, !tbaa !3
  %20 = zext i32 %19 to i64
  %21 = getelementptr inbounds nuw %"class.sat::cut", ptr %16, i64 %20
  %22 = getelementptr inbounds nuw %"class.sat::cut", ptr %16, i64 %.pre-phi
  call void @llvm.memcpy.p0.p0.i64(ptr noundef nonnull align 8 dereferenceable(48) %22, ptr noundef nonnull align 8 dereferenceable(48) %21, i64 48, i1 false), !tbaa.struct !19
  ret void
}